; Function Attrs: mustprogress nounwind uwtable
define hidden void @_ZN6hermes2vm10timeStringEddRN4llvh15SmallVectorImplIcEE(double noundef %t, double noundef %tza, ptr noundef nonnull align 8 dereferenceable(16) %buf) local_unnamed_addr #0 {
entry:
  %os = alloca %"class.llvh::raw_svector_ostream", align 8
  %ref.tmp = alloca %"class.llvh::format_object", align 8
  %BufferMode.i.i.i = getelementptr inbounds i8, ptr %os, i64 32
  store i32 1, ptr %BufferMode.i.i.i, align 8
  %OutBufStart.i.i.i = getelementptr inbounds i8, ptr %os, i64 8
  call void @llvm.memset.p0.i64(ptr noundef nonnull align 8 dereferenceable(24) %OutBufStart.i.i.i, i8 0, i64 24, i1 false)
  store ptr getelementptr inbounds ({ [14 x ptr] }, ptr @_ZTVN4llvh19raw_svector_ostreamE, i64 0, i32 0, i64 2), ptr %os, align 8
  %OS.i = getelementptr inbounds i8, ptr %os, i64 40
  store ptr %buf, ptr %OS.i, align 8
  call void @_ZN4llvh11raw_ostream16SetBufferAndModeEPcmNS0_10BufferKindE(ptr noundef nonnull align 8 dereferenceable(36) %os, ptr noundef null, i64 noundef 0, i32 noundef 0) #17
  %div.i = fdiv double %t, 3.600000e+06
  %0 = call double @llvm.floor.f64(double %div.i)
  %call.i.i = call double @fmod(double noundef %0, double noundef 2.400000e+01) #17
  %cmp.i.i = fcmp olt double %call.i.i, 0.000000e+00
  %add.i.i = fadd double %call.i.i, 2.400000e+01
  %cond.i.i = select i1 %cmp.i.i, double %add.i.i, double %call.i.i
  %conv = fptosi double %cond.i.i to i32
  %div.i3 = fdiv double %t, 6.000000e+04
  %1 = call double @llvm.floor.f64(double %div.i3)
  %call.i.i4 = call double @fmod(double noundef %1, double noundef 6.000000e+01) #17
  %div.i8 = fdiv double %t, 1.000000e+03
  %2 = call double @llvm.floor.f64(double %div.i8)
  %call.i.i9 = call double @fmod(double noundef %2, double noundef 6.000000e+01) #17
  %Fmt.i.i.i = getelementptr inbounds i8, ptr %ref.tmp, i64 8
  store ptr @.str.5, ptr %Fmt.i.i.i, align 8, !alias.scope !23
  store ptr getelementptr inbounds ({ [4 x ptr] }, ptr @_ZTVN4llvh13format_objectIJiiiEEE, i64 0, i32 0, i64 2), ptr %ref.tmp, align 8, !alias.scope !23
  %Vals.i.i = getelementptr inbounds i8, ptr %ref.tmp, i64 16
  %3 = insertelement <2 x double> poison, double %call.i.i9, i64 0
  %4 = insertelement <2 x double> %3, double %call.i.i4, i64 1
  %5 = fcmp olt <2 x double> %4, zeroinitializer
  %6 = fadd <2 x double> %4, <double 6.000000e+01, double 6.000000e+01>
  %7 = select <2 x i1> %5, <2 x double> %6, <2 x double> %4
  %8 = fptosi <2 x double> %7 to <2 x i32>
  store <2 x i32> %8, ptr %Vals.i.i, align 8, !alias.scope !23
  %9 = getelementptr inbounds i8, ptr %ref.tmp, i64 24
  store i32 %conv, ptr %9, align 8, !alias.scope !23
  %call5 = call noundef nonnull align 8 dereferenceable(36) ptr @_ZN4llvh11raw_ostreamlsERKNS_18format_object_baseE(ptr noundef nonnull align 8 dereferenceable(36) %os, ptr noundef nonnull align 8 dereferenceable(16) %ref.tmp) #17
  call void @_ZN4llvh11raw_ostreamD2Ev(ptr noundef nonnull align 8 dereferenceable(36) %os) #17
  ret void
}